; Function Attrs: nounwind uwtable
define void @Ivy_ManCollectCut(ptr noundef %0, ptr noundef captures(none) %1, ptr noundef readonly captures(none) %2, ptr noundef initializes((4, 8)) %3) local_unnamed_addr #1 {
  %5 = getelementptr inbounds nuw i8, ptr %3, i64 4
  store i32 0, ptr %5, align 4
  %6 = getelementptr i8, ptr %2, i64 4
  %.val26 = load i32, ptr %6, align 4
  %7 = icmp sgt i32 %.val26, 0
  br i1 %7, label %.lr.ph, label %.critedge

.lr.ph:                                           ; preds = %4
  %8 = getelementptr i8, ptr %2, i64 8
  %.phi.trans.insert.i = getelementptr inbounds nuw i8, ptr %3, i64 8
  %9 = getelementptr i8, ptr %0, i64 24
  br label %10

10:                                               ; preds = %.lr.ph, %Vec_IntPush.exit
  %indvars.iv = phi i64 [ 0, %.lr.ph ], [ %indvars.iv.next, %Vec_IntPush.exit ]
  %.val22 = load ptr, ptr %8, align 8
  %11 = getelementptr inbounds nuw i32, ptr %.val22, i64 %indvars.iv
  %12 = load i32, ptr %11, align 4
  %13 = load i32, ptr %5, align 4
  %14 = load i32, ptr %3, align 8
  %15 = icmp eq i32 %13, %14
  br i1 %15, label %16, label %.Vec_IntGrow.exit10_crit_edge.i

.Vec_IntGrow.exit10_crit_edge.i:                  ; preds = %10
  %.pre.i = load ptr, ptr %.phi.trans.insert.i, align 8
  br label %Vec_IntPush.exit

16:                                               ; preds = %10
  %17 = icmp slt i32 %13, 16
  br i1 %17, label %18, label %25

18:                                               ; preds = %16
  %19 = load ptr, ptr %.phi.trans.insert.i, align 8
  %.not9.i.i = icmp eq ptr %19, null
  br i1 %.not9.i.i, label %22, label %20

20:                                               ; preds = %18
  %21 = tail call dereferenceable_or_null(64) ptr @realloc(ptr noundef nonnull %19, i64 noundef 64) #17
  br label %Vec_IntGrow.exit.i

22:                                               ; preds = %18
  %23 = tail call noalias dereferenceable_or_null(64) ptr @malloc(i64 noundef 64) #18
  br label %Vec_IntGrow.exit.i

Vec_IntGrow.exit.i:                               ; preds = %22, %20
  %24 = phi ptr [ %21, %20 ], [ %23, %22 ]
  store ptr %24, ptr %.phi.trans.insert.i, align 8
  store i32 16, ptr %3, align 8
  br label %Vec_IntPush.exit

25:                                               ; preds = %16
  %26 = shl nuw nsw i32 %13, 1
  %27 = load ptr, ptr %.phi.trans.insert.i, align 8
  %.not9.i9.i = icmp eq ptr %27, null
  %28 = zext nneg i32 %26 to i64
  %29 = shl nuw nsw i64 %28, 2
  br i1 %.not9.i9.i, label %32, label %30

30:                                               ; preds = %25
  %31 = tail call ptr @realloc(ptr noundef nonnull %27, i64 noundef %29) #17
  br label %34

32:                                               ; preds = %25
  %33 = tail call noalias ptr @malloc(i64 noundef %29) #18
  br label %34

34:                                               ; preds = %32, %30
  %35 = phi ptr [ %31, %30 ], [ %33, %32 ]
  store ptr %35, ptr %.phi.trans.insert.i, align 8
  store i32 %26, ptr %3, align 8
  br label %Vec_IntPush.exit

Vec_IntPush.exit:                                 ; preds = %.Vec_IntGrow.exit10_crit_edge.i, %Vec_IntGrow.exit.i, %34
  %36 = phi ptr [ %.pre.i, %.Vec_IntGrow.exit10_crit_edge.i ], [ %35, %34 ], [ %24, %Vec_IntGrow.exit.i ]
  %37 = load i32, ptr %5, align 4
  %38 = add nsw i32 %37, 1
  store i32 %38, ptr %5, align 4
  %39 = sext i32 %37 to i64
  %40 = getelementptr inbounds i32, ptr %36, i64 %39
  store i32 %12, ptr %40, align 4
  %.val24 = load ptr, ptr %9, align 8
  %41 = getelementptr i8, ptr %.val24, i64 8
  %.val24.val = load ptr, ptr %41, align 8
  %42 = sext i32 %12 to i64
  %43 = getelementptr inbounds ptr, ptr %.val24.val, i64 %42
  %44 = load ptr, ptr %43, align 8
  %45 = getelementptr inbounds nuw i8, ptr %44, i64 8
  %46 = load i32, ptr %45, align 8
  %47 = or i32 %46, 16
  store i32 %47, ptr %45, align 8
  %indvars.iv.next = add nuw nsw i64 %indvars.iv, 1
  %.val = load i32, ptr %6, align 4
  %48 = sext i32 %.val to i64
  %49 = icmp slt i64 %indvars.iv.next, %48
  br i1 %49, label %10, label %.critedge, !llvm.loop !6

.critedge:                                        ; preds = %Vec_IntPush.exit, %4
  tail call void @Ivy_ManCollectCut_rec(ptr noundef %0, ptr noundef %1, ptr noundef nonnull %3)
  %.val2128 = load i32, ptr %5, align 4
  %50 = icmp sgt i32 %.val2128, 0
  br i1 %50, label %.lr.ph30, label %.critedge2

.lr.ph30:                                         ; preds = %.critedge
  %51 = getelementptr i8, ptr %3, i64 8
  %52 = getelementptr i8, ptr %0, i64 24
  br label %53

53:                                               ; preds = %.lr.ph30, %53
  %indvars.iv32 = phi i64 [ 0, %.lr.ph30 ], [ %indvars.iv.next33, %53 ]
  %.val23 = load ptr, ptr %51, align 8
  %54 = getelementptr inbounds nuw i32, ptr %.val23, i64 %indvars.iv32
  %55 = load i32, ptr %54, align 4
  %.val25 = load ptr, ptr %52, align 8
  %56 = getelementptr i8, ptr %.val25, i64 8
  %.val25.val = load ptr, ptr %56, align 8
  %57 = sext i32 %55 to i64
  %58 = getelementptr inbounds ptr, ptr %.val25.val, i64 %57
  %59 = load ptr, ptr %58, align 8
  %60 = getelementptr inbounds nuw i8, ptr %59, i64 8
  %61 = load i32, ptr %60, align 8
  %62 = and i32 %61, -17
  store i32 %62, ptr %60, align 8
  %indvars.iv.next33 = add nuw nsw i64 %indvars.iv32, 1
  %.val21 = load i32, ptr %5, align 4
  %63 = sext i32 %.val21 to i64
  %64 = icmp slt i64 %indvars.iv.next33, %63
  br i1 %64, label %53, label %.critedge2, !llvm.loop !7

.critedge2:                                       ; preds = %53, %.critedge
  ret void
}